target datalayout = "e-m:e-p270:32:32-p271:32:32-p272:64:64-i64:64-i128:128-f80:128-n8:16:32:64-S128"
target triple = "x86_64-pc-linux-gnu"

%struct.gcry_md_handle = type { ptr, i32, i32, [1 x i8] }

; Function Attrs: alwaysinline nounwind
define internal ptr @memcpy.inline(ptr noalias %0, ptr noalias %1, i64 %2) #3 {
  %4 = alloca ptr, align 8
  %5 = alloca ptr, align 8
  %6 = alloca i64, align 8
  store ptr %0, ptr %4, align 8
  store ptr %1, ptr %5, align 8
  store i64 %2, ptr %6, align 8
  %7 = load ptr, ptr %4, align 8
  %8 = load ptr, ptr %5, align 8
  %9 = load i64, ptr %6, align 8
  %10 = load ptr, ptr %4, align 8
  %11 = call i64 @llvm.objectsize.i64.p0(ptr %10, i1 false, i1 true, i1 true)
  %12 = call ptr @__memcpy_chk(ptr noundef %7, ptr noundef %8, i64 noundef %9, i64 noundef %11) #9
  ret ptr %12
}

; Function Attrs: null_pointer_is_valid sspstrong uwtable
define i32 @hkdf_expand(i32 noundef %0, ptr noundef %1, i32 noundef %2, ptr noundef %3, i32 noundef %4, ptr noundef %5, i32 noundef %6) #0 {
  %8 = alloca i32, align 4
  %9 = alloca i32, align 4
  %10 = alloca ptr, align 8
  %11 = alloca i32, align 4
  %12 = alloca ptr, align 8
  %13 = alloca i32, align 4
  %14 = alloca ptr, align 8
  %15 = alloca i32, align 4
  %16 = alloca [48 x i8], align 16
  %17 = alloca ptr, align 8
  %18 = alloca i32, align 4
  %19 = alloca i32, align 4
  %20 = alloca i32, align 4
  %21 = alloca i32, align 4
  %22 = alloca ptr, align 8
  store i32 %0, ptr %9, align 4
  store ptr %1, ptr %10, align 8
  store i32 %2, ptr %11, align 4
  store ptr %3, ptr %12, align 8
  store i32 %4, ptr %13, align 4
  store ptr %5, ptr %14, align 8
  store i32 %6, ptr %15, align 4
  call void @llvm.lifetime.start.p0(i64 48, ptr %16) #9
  call void @llvm.lifetime.start.p0(i64 8, ptr %17) #9
  call void @llvm.lifetime.start.p0(i64 4, ptr %18) #9
  call void @llvm.lifetime.start.p0(i64 4, ptr %19) #9
  %23 = load i32, ptr %9, align 4
  %24 = call i32 @gcry_md_get_algo_dlen(i32 noundef %23)
  store i32 %24, ptr %19, align 4
  %25 = load i32, ptr %15, align 4
  %26 = icmp ugt i32 %25, 0
  br i1 %26, label %27, label %39

27:                                               ; preds = %7
  %28 = load i32, ptr %15, align 4
  %29 = load i32, ptr %19, align 4
  %30 = mul i32 255, %29
  %31 = icmp ule i32 %28, %30
  br i1 %31, label %32, label %39

32:                                               ; preds = %27
  %33 = load i32, ptr %19, align 4
  %34 = icmp ugt i32 %33, 0
  br i1 %34, label %35, label %39

35:                                               ; preds = %32
  %36 = load i32, ptr %19, align 4
  %37 = zext i32 %36 to i64
  %38 = icmp ule i64 %37, 48
  br i1 %38, label %40, label %39

39:                                               ; preds = %35, %32, %27, %7
  store i32 45, ptr %8, align 4
  store i32 1, ptr %20, align 4
  br label %135

40:                                               ; preds = %35
  %41 = load i32, ptr %9, align 4
  %42 = call i32 @gcry_md_open(ptr noundef %17, i32 noundef %41, i32 noundef 2)
  store i32 %42, ptr %18, align 4
  %43 = load i32, ptr %18, align 4
  %44 = icmp ne i32 %43, 0
  br i1 %44, label %45, label %47

45:                                               ; preds = %40
  %46 = load i32, ptr %18, align 4
  store i32 %46, ptr %8, align 4
  store i32 1, ptr %20, align 4
  br label %135

47:                                               ; preds = %40
  call void @llvm.lifetime.start.p0(i64 4, ptr %21) #9
  store i32 0, ptr %21, align 4
  br label %48

48:                                               ; preds = %129, %47
  %49 = load i32, ptr %21, align 4
  %50 = load i32, ptr %15, align 4
  %51 = icmp ult i32 %49, %50
  br i1 %51, label %53, label %52

52:                                               ; preds = %48
  store i32 2, ptr %20, align 4
  call void @llvm.lifetime.end.p0(i64 4, ptr %21) #9
  br label %133

53:                                               ; preds = %48
  %54 = load ptr, ptr %17, align 8
  call void @gcry_md_reset(ptr noundef %54)
  %55 = load ptr, ptr %17, align 8
  %56 = load ptr, ptr %10, align 8
  %57 = load i32, ptr %11, align 4
  %58 = zext i32 %57 to i64
  %59 = call i32 @gcry_md_setkey(ptr noundef %55, ptr noundef %56, i64 noundef %58)
  %60 = load i32, ptr %21, align 4
  %61 = icmp ugt i32 %60, 0
  br i1 %61, label %62, label %67

62:                                               ; preds = %53
  %63 = load ptr, ptr %17, align 8
  %64 = getelementptr inbounds [48 x i8], ptr %16, i64 0, i64 0
  %65 = load i32, ptr %19, align 4
  %66 = zext i32 %65 to i64
  call void @gcry_md_write(ptr noundef %63, ptr noundef %64, i64 noundef %66)
  br label %67

67:                                               ; preds = %62, %53
  %68 = load ptr, ptr %17, align 8
  %69 = load ptr, ptr %12, align 8
  %70 = load i32, ptr %13, align 4
  %71 = zext i32 %70 to i64
  call void @gcry_md_write(ptr noundef %68, ptr noundef %69, i64 noundef %71)
  br label %72

72:                                               ; preds = %67
  call void @llvm.lifetime.start.p0(i64 8, ptr %22) #9
  %73 = load ptr, ptr %17, align 8
  store ptr %73, ptr %22, align 8
  %74 = load ptr, ptr %22, align 8
  %75 = getelementptr inbounds nuw %struct.gcry_md_handle, ptr %74, i32 0, i32 1
  %76 = load i32, ptr %75, align 8
  %77 = load ptr, ptr %22, align 8
  %78 = getelementptr inbounds nuw %struct.gcry_md_handle, ptr %77, i32 0, i32 2
  %79 = load i32, ptr %78, align 4
  %80 = icmp eq i32 %76, %79
  br i1 %80, label %81, label %83

81:                                               ; preds = %72
  %82 = load ptr, ptr %22, align 8
  call void @gcry_md_write(ptr noundef %82, ptr noundef null, i64 noundef 0)
  br label %83

83:                                               ; preds = %81, %72
  %84 = load i32, ptr %21, align 4
  %85 = load i32, ptr %19, align 4
  %86 = udiv i32 %84, %85
  %87 = add i32 %86, 1
  %88 = trunc i32 %87 to i8
  %89 = zext i8 %88 to i32
  %90 = and i32 %89, 255
  %91 = trunc i32 %90 to i8
  %92 = load ptr, ptr %22, align 8
  %93 = getelementptr inbounds nuw %struct.gcry_md_handle, ptr %92, i32 0, i32 3
  %94 = load ptr, ptr %22, align 8
  %95 = getelementptr inbounds nuw %struct.gcry_md_handle, ptr %94, i32 0, i32 1
  %96 = load i32, ptr %95, align 8
  %97 = add i32 %96, 1
  store i32 %97, ptr %95, align 8
  %98 = sext i32 %96 to i64
  %99 = getelementptr [1 x i8], ptr %93, i64 0, i64 %98
  store i8 %91, ptr %99, align 1
  call void @llvm.lifetime.end.p0(i64 8, ptr %22) #9
  br label %100

100:                                              ; preds = %83
  br label %101

101:                                              ; preds = %100
  %102 = getelementptr inbounds [48 x i8], ptr %16, i64 0, i64 0
  %103 = load ptr, ptr %17, align 8
  %104 = load i32, ptr %9, align 4
  %105 = call ptr @gcry_md_read(ptr noundef %103, i32 noundef %104)
  %106 = load i32, ptr %19, align 4
  %107 = zext i32 %106 to i64
  %108 = call ptr @memcpy.inline(ptr noundef %102, ptr noundef %105, i64 noundef %107) #9
  %109 = load ptr, ptr %14, align 8
  %110 = load i32, ptr %21, align 4
  %111 = zext i32 %110 to i64
  %112 = getelementptr i8, ptr %109, i64 %111
  %113 = getelementptr inbounds [48 x i8], ptr %16, i64 0, i64 0
  %114 = load i32, ptr %19, align 4
  %115 = load i32, ptr %15, align 4
  %116 = load i32, ptr %21, align 4
  %117 = sub i32 %115, %116
  %118 = icmp ult i32 %114, %117
  br i1 %118, label %119, label %121

119:                                              ; preds = %101
  %120 = load i32, ptr %19, align 4
  br label %125

121:                                              ; preds = %101
  %122 = load i32, ptr %15, align 4
  %123 = load i32, ptr %21, align 4
  %124 = sub i32 %122, %123
  br label %125

125:                                              ; preds = %121, %119
  %126 = phi i32 [ %120, %119 ], [ %124, %121 ]
  %127 = zext i32 %126 to i64
  %128 = call ptr @memcpy.inline(ptr noundef %112, ptr noundef %113, i64 noundef %127) #9
  br label %129

129:                                              ; preds = %125
  %130 = load i32, ptr %19, align 4
  %131 = load i32, ptr %21, align 4
  %132 = add i32 %131, %130
  store i32 %132, ptr %21, align 4
  br label %48, !llvm.loop !10

133:                                              ; preds = %52
  %134 = load ptr, ptr %17, align 8
  call void @gcry_md_close(ptr noundef %134)
  store i32 0, ptr %8, align 4
  store i32 1, ptr %20, align 4
  br label %135

135:                                              ; preds = %133, %45, %39
  call void @llvm.lifetime.end.p0(i64 4, ptr %19) #9
  call void @llvm.lifetime.end.p0(i64 4, ptr %18) #9
  call void @llvm.lifetime.end.p0(i64 8, ptr %17) #9
  call void @llvm.lifetime.end.p0(i64 48, ptr %16) #9
  %136 = load i32, ptr %8, align 4
  ret i32 %136
}