; Function Attrs: null_pointer_is_valid sspstrong uwtable
define i32 @hkdf_expand(i32 noundef %0, ptr noundef %1, i32 noundef %2, ptr noundef %3, i32 noundef %4, ptr noundef %5, i32 noundef %6) local_unnamed_addr #0 {
  %8 = alloca [48 x i8], align 16
  %9 = alloca ptr, align 8
  call void @llvm.lifetime.start.p0(i64 48, ptr nonnull %8) #10
  call void @llvm.lifetime.start.p0(i64 8, ptr nonnull %9) #10
  %10 = tail call i32 @gcry_md_get_algo_dlen(i32 noundef %0)
  %.not = icmp eq i32 %6, 0
  br i1 %.not, label %56, label %11

11:                                               ; preds = %7
  %12 = mul i32 %10, 255
  %13 = icmp ule i32 %6, %12
  %14 = zext i32 %10 to i64
  %15 = icmp ult i32 %10, 49
  %or.cond4 = and i1 %15, %13
  br i1 %or.cond4, label %16, label %56

16:                                               ; preds = %11
  %17 = call i32 @gcry_md_open(ptr noundef nonnull %9, i32 noundef %0, i32 noundef 2)
  %.not45 = icmp eq i32 %17, 0
  br i1 %.not45, label %.preheader, label %56

.preheader:                                       ; preds = %16
  %18 = zext i32 %2 to i64
  %19 = zext i32 %4 to i64
  br label %22

20:                                               ; preds = %37
  %21 = load ptr, ptr %9, align 8
  call void @gcry_md_close(ptr noundef %21)
  br label %56

22:                                               ; preds = %.preheader, %37
  %.04047 = phi i32 [ 0, %.preheader ], [ %54, %37 ]
  %23 = load ptr, ptr %9, align 8
  call void @gcry_md_reset(ptr noundef %23)
  %24 = load ptr, ptr %9, align 8
  %25 = call i32 @gcry_md_setkey(ptr noundef %24, ptr noundef %1, i64 noundef %18)
  %.not46 = icmp eq i32 %.04047, 0
  br i1 %.not46, label %28, label %26

26:                                               ; preds = %22
  %27 = load ptr, ptr %9, align 8
  call void @gcry_md_write(ptr noundef %27, ptr noundef nonnull %8, i64 noundef %14)
  br label %28

28:                                               ; preds = %26, %22
  %29 = load ptr, ptr %9, align 8
  call void @gcry_md_write(ptr noundef %29, ptr noundef %3, i64 noundef %19)
  %30 = load ptr, ptr %9, align 8
  %31 = getelementptr inbounds nuw i8, ptr %30, i64 8
  %32 = load i32, ptr %31, align 8
  %33 = getelementptr inbounds nuw i8, ptr %30, i64 12
  %34 = load i32, ptr %33, align 4
  %35 = icmp eq i32 %32, %34
  br i1 %35, label %36, label %37

36:                                               ; preds = %28
  call void @gcry_md_write(ptr noundef %30, ptr noundef null, i64 noundef 0)
  %.pre = load i32, ptr %31, align 8
  br label %37

37:                                               ; preds = %36, %28
  %38 = phi i32 [ %.pre, %36 ], [ %32, %28 ]
  %39 = udiv i32 %.04047, %10
  %40 = trunc i32 %39 to i8
  %41 = add i8 %40, 1
  %42 = getelementptr inbounds nuw i8, ptr %30, i64 16
  %43 = add i32 %38, 1
  store i32 %43, ptr %31, align 8
  %44 = sext i32 %38 to i64
  %45 = getelementptr [1 x i8], ptr %42, i64 0, i64 %44
  store i8 %41, ptr %45, align 1
  %46 = load ptr, ptr %9, align 8
  %47 = call ptr @gcry_md_read(ptr noundef %46, i32 noundef %0)
  %48 = call ptr @__memcpy_chk(ptr noundef nonnull %8, ptr noundef %47, i64 noundef range(i64 0, 4294967296) %14, i64 noundef 48) #10, !alias.scope !8
  %49 = zext i32 %.04047 to i64
  %50 = getelementptr i8, ptr %5, i64 %49
  %51 = sub i32 %6, %.04047
  %52 = call i32 @llvm.umin.i32(i32 %10, i32 %51)
  %53 = zext nneg i32 %52 to i64
  call void @llvm.memcpy.p0.p0.i64(ptr noundef align 1 %50, ptr noundef nonnull align 16 %8, i64 noundef range(i64 0, 4294967296) %53, i1 noundef false) #10
  %54 = add i32 %.04047, %10
  %55 = icmp ult i32 %54, %6
  br i1 %55, label %22, label %20, !llvm.loop !12

56:                                               ; preds = %16, %7, %11, %20
  %.0 = phi i32 [ 0, %20 ], [ 45, %11 ], [ 45, %7 ], [ %17, %16 ]
  call void @llvm.lifetime.end.p0(i64 8, ptr nonnull %9) #10
  call void @llvm.lifetime.end.p0(i64 48, ptr nonnull %8) #10
  ret i32 %.0
}